; Function Attrs: mustprogress nofree norecurse nosync nounwind ssp willreturn memory(argmem: readwrite) uwtable
define internal void @_ZN6open3d4core6kernelL25CPULogicalOrElementKernelIllEEvPKvS4_Pv(ptr noundef readonly captures(none) %0, ptr noundef readonly captures(none) %1, ptr noundef writeonly captures(none) initializes((0, 8)) %2) #15 {
  %4 = load i64, ptr %0, align 8, !tbaa !11
  %.not = icmp eq i64 %4, 0
  br i1 %.not, label %5, label %9

5:                                                ; preds = %3
  %6 = load i64, ptr %1, align 8, !tbaa !11
  %7 = icmp ne i64 %6, 0
  %8 = zext i1 %7 to i64
  br label %9

9:                                                ; preds = %5, %3
  %10 = phi i64 [ 1, %3 ], [ %8, %5 ]
  store i64 %10, ptr %2, align 8, !tbaa !11
  ret void
}